target datalayout = "e-m:e-p270:32:32-p271:32:32-p272:64:64-i64:64-i128:128-f80:128-n8:16:32:64-S128"
target triple = "x86_64-pc-linux-gnu"

%struct.hidraw_report_descriptor = type { i32, [4096 x i8] }
%struct.PLATFORM_hid_device_ = type { i32, i32, i32, ptr, ptr }

@.str.55 = private unnamed_addr constant [22 x i8] c"ioctl(GRDESCSIZE): %s\00", align 1
@.str.56 = private unnamed_addr constant [18 x i8] c"ioctl(GRDESC): %s\00", align 1

; Function Attrs: nounwind uwtable
define internal i32 @get_hid_report_descriptor_from_hidraw(ptr noundef %0, ptr noundef %1) #0 {
  %3 = alloca i32, align 4
  %4 = alloca ptr, align 8
  %5 = alloca ptr, align 8
  %6 = alloca i32, align 4
  %7 = alloca i32, align 4
  %8 = alloca i32, align 4
  store ptr %0, ptr %4, align 8
  store ptr %1, ptr %5, align 8
  call void @llvm.lifetime.start.p0(i64 4, ptr %6) #10
  store i32 0, ptr %6, align 4
  call void @llvm.lifetime.start.p0(i64 4, ptr %7) #10
  %9 = load ptr, ptr %4, align 8
  %10 = getelementptr inbounds nuw %struct.PLATFORM_hid_device_, ptr %9, i32 0, i32 0
  %11 = load i32, ptr %10, align 8
  %12 = call i32 (i32, i64, ...) @ioctl(i32 noundef %11, i64 noundef 2147764225, ptr noundef %6) #10
  store i32 %12, ptr %7, align 4
  %13 = load i32, ptr %7, align 4
  %14 = icmp slt i32 %13, 0
  br i1 %14, label %15, label %21

15:                                               ; preds = %2
  %16 = load ptr, ptr %4, align 8
  %17 = call ptr @__errno_location() #13
  %18 = load i32, ptr %17, align 4
  %19 = call ptr @strerror(i32 noundef %18) #10
  call void (ptr, ptr, ...) @register_device_error_format(ptr noundef %16, ptr noundef @.str.55, ptr noundef %19)
  %20 = load i32, ptr %7, align 4
  store i32 %20, ptr %3, align 4
  store i32 1, ptr %8, align 4
  br label %40

21:                                               ; preds = %2
  %22 = load ptr, ptr %5, align 8
  call void @llvm.memset.p0.i64(ptr align 4 %22, i8 0, i64 4100, i1 false)
  %23 = load i32, ptr %6, align 4
  %24 = load ptr, ptr %5, align 8
  %25 = getelementptr inbounds nuw %struct.hidraw_report_descriptor, ptr %24, i32 0, i32 0
  store i32 %23, ptr %25, align 4
  %26 = load ptr, ptr %4, align 8
  %27 = getelementptr inbounds nuw %struct.PLATFORM_hid_device_, ptr %26, i32 0, i32 0
  %28 = load i32, ptr %27, align 8
  %29 = load ptr, ptr %5, align 8
  %30 = call i32 (i32, i64, ...) @ioctl(i32 noundef %28, i64 noundef 2416199682, ptr noundef %29) #10
  store i32 %30, ptr %7, align 4
  %31 = load i32, ptr %7, align 4
  %32 = icmp slt i32 %31, 0
  br i1 %32, label %33, label %38

33:                                               ; preds = %21
  %34 = load ptr, ptr %4, align 8
  %35 = call ptr @__errno_location() #13
  %36 = load i32, ptr %35, align 4
  %37 = call ptr @strerror(i32 noundef %36) #10
  call void (ptr, ptr, ...) @register_device_error_format(ptr noundef %34, ptr noundef @.str.56, ptr noundef %37)
  br label %38

38:                                               ; preds = %33, %21
  %39 = load i32, ptr %7, align 4
  store i32 %39, ptr %3, align 4
  store i32 1, ptr %8, align 4
  br label %40

40:                                               ; preds = %38, %15
  call void @llvm.lifetime.end.p0(i64 4, ptr %7) #10
  call void @llvm.lifetime.end.p0(i64 4, ptr %6) #10
  %41 = load i32, ptr %3, align 4
  ret i32 %41
}

; Function Attrs: nounwind uwtable
define hidden i32 @PLATFORM_hid_get_report_descriptor(ptr noundef %0, ptr noundef %1, i64 noundef %2) #0 {
  %4 = alloca i32, align 4
  %5 = alloca ptr, align 8
  %6 = alloca ptr, align 8
  %7 = alloca i64, align 8
  %8 = alloca %struct.hidraw_report_descriptor, align 4
  %9 = alloca i32, align 4
  %10 = alloca i32, align 4
  store ptr %0, ptr %5, align 8
  store ptr %1, ptr %6, align 8
  store i64 %2, ptr %7, align 8
  call void @llvm.lifetime.start.p0(i64 4100, ptr %8) #10
  call void @llvm.lifetime.start.p0(i64 4, ptr %9) #10
  %11 = load ptr, ptr %5, align 8
  %12 = call i32 @get_hid_report_descriptor_from_hidraw(ptr noundef %11, ptr noundef %8)
  store i32 %12, ptr %9, align 4
  %13 = load i32, ptr %9, align 4
  %14 = icmp slt i32 %13, 0
  br i1 %14, label %15, label %17

15:                                               ; preds = %3
  %16 = load i32, ptr %9, align 4
  store i32 %16, ptr %4, align 4
  store i32 1, ptr %10, align 4
  br label %34

17:                                               ; preds = %3
  %18 = getelementptr inbounds nuw %struct.hidraw_report_descriptor, ptr %8, i32 0, i32 0
  %19 = load i32, ptr %18, align 4
  %20 = zext i32 %19 to i64
  %21 = load i64, ptr %7, align 8
  %22 = icmp ult i64 %20, %21
  br i1 %22, label %23, label %27

23:                                               ; preds = %17
  %24 = getelementptr inbounds nuw %struct.hidraw_report_descriptor, ptr %8, i32 0, i32 0
  %25 = load i32, ptr %24, align 4
  %26 = zext i32 %25 to i64
  store i64 %26, ptr %7, align 8
  br label %27

27:                                               ; preds = %23, %17
  %28 = load ptr, ptr %6, align 8
  %29 = getelementptr inbounds nuw %struct.hidraw_report_descriptor, ptr %8, i32 0, i32 1
  %30 = getelementptr inbounds [4096 x i8], ptr %29, i64 0, i64 0
  %31 = load i64, ptr %7, align 8
  call void @llvm.memcpy.p0.p0.i64(ptr align 1 %28, ptr align 4 %30, i64 %31, i1 false)
  %32 = load i64, ptr %7, align 8
  %33 = trunc i64 %32 to i32
  store i32 %33, ptr %4, align 4
  store i32 1, ptr %10, align 4
  br label %34

34:                                               ; preds = %27, %15
  call void @llvm.lifetime.end.p0(i64 4, ptr %9) #10
  call void @llvm.lifetime.end.p0(i64 4100, ptr %8) #10
  %35 = load i32, ptr %4, align 4
  ret i32 %35
}