; Function Attrs: nounwind uwtable
define hidden i32 @PLATFORM_hid_get_report_descriptor(ptr noundef readonly captures(none) %0, ptr noundef writeonly captures(none) %1, i64 noundef %2) #1 {
  %4 = alloca i32, align 4
  %5 = alloca %struct.hidraw_report_descriptor, align 4
  call void @llvm.lifetime.start.p0(i64 4100, ptr nonnull %5) #22
  call void @llvm.lifetime.start.p0(i64 4, ptr nonnull %4) #22
  store i32 0, ptr %4, align 4
  %6 = load i32, ptr %0, align 8
  %7 = call i32 (i32, i64, ...) @ioctl(i32 noundef %6, i64 noundef 2147764225, ptr noundef nonnull %4) #22
  %8 = icmp slt i32 %7, 0
  br i1 %8, label %get_hid_report_descriptor_from_hidraw.exit.thread, label %9

9:                                                ; preds = %3
  %10 = getelementptr inbounds nuw i8, ptr %5, i64 4
  call void @llvm.memset.p0.i64(ptr noundef nonnull align 4 dereferenceable(4096) %10, i8 0, i64 4096, i1 false)
  %11 = load i32, ptr %4, align 4
  store i32 %11, ptr %5, align 4
  %12 = load i32, ptr %0, align 8
  %13 = call i32 (i32, i64, ...) @ioctl(i32 noundef %12, i64 noundef 2416199682, ptr noundef nonnull %5) #22
  %14 = icmp slt i32 %13, 0
  br i1 %14, label %get_hid_report_descriptor_from_hidraw.exit.thread, label %18

get_hid_report_descriptor_from_hidraw.exit.thread: ; preds = %3, %9
  %.str.56.sink.i = phi ptr [ @.str.55, %3 ], [ @.str.56, %9 ]
  %.0.ph.i = phi i32 [ %7, %3 ], [ %13, %9 ]
  %15 = tail call ptr @__errno_location() #25
  %16 = load i32, ptr %15, align 4
  %17 = call ptr @strerror(i32 noundef %16) #22
  call void (ptr, ptr, ...) @register_device_error_format(ptr noundef nonnull readonly %0, ptr noundef nonnull %.str.56.sink.i, ptr noundef %17)
  call void @llvm.lifetime.end.p0(i64 4, ptr nonnull %4) #22
  br label %22

18:                                               ; preds = %9
  call void @llvm.lifetime.end.p0(i64 4, ptr nonnull %4) #22
  %19 = load i32, ptr %5, align 4
  %20 = zext i32 %19 to i64
  %spec.select = call i64 @llvm.umin.i64(i64 %2, i64 %20)
  call void @llvm.memcpy.p0.p0.i64(ptr align 1 %1, ptr nonnull align 4 %10, i64 %spec.select, i1 false)
  %21 = trunc nuw i64 %spec.select to i32
  br label %22

22:                                               ; preds = %get_hid_report_descriptor_from_hidraw.exit.thread, %18
  %.0 = phi i32 [ %21, %18 ], [ %.0.ph.i, %get_hid_report_descriptor_from_hidraw.exit.thread ]
  call void @llvm.lifetime.end.p0(i64 4100, ptr nonnull %5) #22
  ret i32 %.0
}